target datalayout = "e-m:e-p270:32:32-p271:32:32-p272:64:64-i64:64-i128:128-f80:128-n8:16:32:64-S128"
target triple = "x86_64-pc-linux-gnu"

%struct.FxuMatrix = type { %struct.FxuListCube, %struct.FxuListVar, ptr, ptr, i32, i32, i32, ptr, %struct.FxuListSingle, ptr, i32, i32, ptr, ptr, ptr, ptr, ptr, ptr, ptr, i32, i32, i32, i32, ptr }
%struct.FxuListCube = type { ptr, ptr, i32 }
%struct.FxuListVar = type { ptr, ptr, i32 }
%struct.FxuListSingle = type { ptr, ptr, i32 }
%struct.FxuDouble = type { i32, i32, i32, i32, %struct.FxuListPair, ptr, ptr, ptr }
%struct.FxuListPair = type { ptr, ptr, i32 }
%struct.FxuPair = type { i32, i32, i32, ptr, ptr, ptr, i32, i32, ptr, ptr }
%struct.FxuListLit = type { ptr, ptr, i32 }
%struct.FxuCube = type { i32, ptr, ptr, %struct.FxuListLit, ptr, ptr, ptr }
%struct.FxuLit = type { i32, i32, ptr, ptr, ptr, ptr, ptr, ptr }
%struct.FxuListDouble = type { ptr, ptr, i32 }

; Function Attrs: nounwind uwtable
define void @Fxu_MatrixGetDoubleVars(ptr noundef %0, ptr noundef %1, ptr noundef %2, ptr noundef %3, ptr noundef %4, ptr noundef %5) #0 {
  %7 = alloca ptr, align 8
  %8 = alloca ptr, align 8
  %9 = alloca ptr, align 8
  %10 = alloca ptr, align 8
  %11 = alloca ptr, align 8
  %12 = alloca ptr, align 8
  %13 = alloca ptr, align 8
  %14 = alloca ptr, align 8
  %15 = alloca ptr, align 8
  %16 = alloca i32, align 4
  %17 = alloca i32, align 4
  store ptr %0, ptr %7, align 8
  store ptr %1, ptr %8, align 8
  store ptr %2, ptr %9, align 8
  store ptr %3, ptr %10, align 8
  store ptr %4, ptr %11, align 8
  store ptr %5, ptr %12, align 8
  %18 = load ptr, ptr %8, align 8
  %19 = getelementptr inbounds %struct.FxuDouble, ptr %18, i32 0, i32 4
  %20 = getelementptr inbounds %struct.FxuListPair, ptr %19, i32 0, i32 0
  %21 = load ptr, ptr %20, align 8
  store ptr %21, ptr %13, align 8
  store i32 0, ptr %16, align 4
  store i32 0, ptr %17, align 4
  %22 = load ptr, ptr %13, align 8
  %23 = getelementptr inbounds %struct.FxuPair, ptr %22, i32 0, i32 4
  %24 = load ptr, ptr %23, align 8
  %25 = getelementptr inbounds %struct.FxuCube, ptr %24, i32 0, i32 3
  %26 = getelementptr inbounds %struct.FxuListLit, ptr %25, i32 0, i32 0
  %27 = load ptr, ptr %26, align 8
  store ptr %27, ptr %14, align 8
  %28 = load ptr, ptr %13, align 8
  %29 = getelementptr inbounds %struct.FxuPair, ptr %28, i32 0, i32 5
  %30 = load ptr, ptr %29, align 8
  %31 = getelementptr inbounds %struct.FxuCube, ptr %30, i32 0, i32 3
  %32 = getelementptr inbounds %struct.FxuListLit, ptr %31, i32 0, i32 0
  %33 = load ptr, ptr %32, align 8
  store ptr %33, ptr %15, align 8
  br label %34

34:                                               ; preds = %128, %6
  %35 = load ptr, ptr %14, align 8
  %36 = icmp ne ptr %35, null
  br i1 %36, label %37, label %89

37:                                               ; preds = %34
  %38 = load ptr, ptr %15, align 8
  %39 = icmp ne ptr %38, null
  br i1 %39, label %40, label %89

40:                                               ; preds = %37
  %41 = load ptr, ptr %14, align 8
  %42 = getelementptr inbounds %struct.FxuLit, ptr %41, i32 0, i32 0
  %43 = load i32, ptr %42, align 8
  %44 = load ptr, ptr %15, align 8
  %45 = getelementptr inbounds %struct.FxuLit, ptr %44, i32 0, i32 0
  %46 = load i32, ptr %45, align 8
  %47 = icmp eq i32 %43, %46
  br i1 %47, label %48, label %55

48:                                               ; preds = %40
  %49 = load ptr, ptr %14, align 8
  %50 = getelementptr inbounds %struct.FxuLit, ptr %49, i32 0, i32 5
  %51 = load ptr, ptr %50, align 8
  store ptr %51, ptr %14, align 8
  %52 = load ptr, ptr %15, align 8
  %53 = getelementptr inbounds %struct.FxuLit, ptr %52, i32 0, i32 5
  %54 = load ptr, ptr %53, align 8
  store ptr %54, ptr %15, align 8
  br label %88

55:                                               ; preds = %40
  %56 = load ptr, ptr %14, align 8
  %57 = getelementptr inbounds %struct.FxuLit, ptr %56, i32 0, i32 0
  %58 = load i32, ptr %57, align 8
  %59 = load ptr, ptr %15, align 8
  %60 = getelementptr inbounds %struct.FxuLit, ptr %59, i32 0, i32 0
  %61 = load i32, ptr %60, align 8
  %62 = icmp slt i32 %58, %61
  br i1 %62, label %63, label %75

63:                                               ; preds = %55
  %64 = load ptr, ptr %14, align 8
  %65 = getelementptr inbounds %struct.FxuLit, ptr %64, i32 0, i32 0
  %66 = load i32, ptr %65, align 8
  %67 = load ptr, ptr %9, align 8
  %68 = load i32, ptr %16, align 4
  %69 = add nsw i32 %68, 1
  store i32 %69, ptr %16, align 4
  %70 = sext i32 %68 to i64
  %71 = getelementptr inbounds i32, ptr %67, i64 %70
  store i32 %66, ptr %71, align 4
  %72 = load ptr, ptr %14, align 8
  %73 = getelementptr inbounds %struct.FxuLit, ptr %72, i32 0, i32 5
  %74 = load ptr, ptr %73, align 8
  store ptr %74, ptr %14, align 8
  br label %87

75:                                               ; preds = %55
  %76 = load ptr, ptr %15, align 8
  %77 = getelementptr inbounds %struct.FxuLit, ptr %76, i32 0, i32 0
  %78 = load i32, ptr %77, align 8
  %79 = load ptr, ptr %10, align 8
  %80 = load i32, ptr %17, align 4
  %81 = add nsw i32 %80, 1
  store i32 %81, ptr %17, align 4
  %82 = sext i32 %80 to i64
  %83 = getelementptr inbounds i32, ptr %79, i64 %82
  store i32 %78, ptr %83, align 4
  %84 = load ptr, ptr %15, align 8
  %85 = getelementptr inbounds %struct.FxuLit, ptr %84, i32 0, i32 5
  %86 = load ptr, ptr %85, align 8
  store ptr %86, ptr %15, align 8
  br label %87

87:                                               ; preds = %75, %63
  br label %88

88:                                               ; preds = %87, %48
  br label %128

89:                                               ; preds = %37, %34
  %90 = load ptr, ptr %14, align 8
  %91 = icmp ne ptr %90, null
  br i1 %91, label %92, label %107

92:                                               ; preds = %89
  %93 = load ptr, ptr %15, align 8
  %94 = icmp ne ptr %93, null
  br i1 %94, label %107, label %95

95:                                               ; preds = %92
  %96 = load ptr, ptr %14, align 8
  %97 = getelementptr inbounds %struct.FxuLit, ptr %96, i32 0, i32 0
  %98 = load i32, ptr %97, align 8
  %99 = load ptr, ptr %9, align 8
  %100 = load i32, ptr %16, align 4
  %101 = add nsw i32 %100, 1
  store i32 %101, ptr %16, align 4
  %102 = sext i32 %100 to i64
  %103 = getelementptr inbounds i32, ptr %99, i64 %102
  store i32 %98, ptr %103, align 4
  %104 = load ptr, ptr %14, align 8
  %105 = getelementptr inbounds %struct.FxuLit, ptr %104, i32 0, i32 5
  %106 = load ptr, ptr %105, align 8
  store ptr %106, ptr %14, align 8
  br label %127

107:                                              ; preds = %92, %89
  %108 = load ptr, ptr %14, align 8
  %109 = icmp ne ptr %108, null
  br i1 %109, label %125, label %110

110:                                              ; preds = %107
  %111 = load ptr, ptr %15, align 8
  %112 = icmp ne ptr %111, null
  br i1 %112, label %113, label %125

113:                                              ; preds = %110
  %114 = load ptr, ptr %15, align 8
  %115 = getelementptr inbounds %struct.FxuLit, ptr %114, i32 0, i32 0
  %116 = load i32, ptr %115, align 8
  %117 = load ptr, ptr %10, align 8
  %118 = load i32, ptr %17, align 4
  %119 = add nsw i32 %118, 1
  store i32 %119, ptr %17, align 4
  %120 = sext i32 %118 to i64
  %121 = getelementptr inbounds i32, ptr %117, i64 %120
  store i32 %116, ptr %121, align 4
  %122 = load ptr, ptr %15, align 8
  %123 = getelementptr inbounds %struct.FxuLit, ptr %122, i32 0, i32 5
  %124 = load ptr, ptr %123, align 8
  store ptr %124, ptr %15, align 8
  br label %126

125:                                              ; preds = %110, %107
  br label %129

126:                                              ; preds = %113
  br label %127

127:                                              ; preds = %126, %95
  br label %128

128:                                              ; preds = %127, %88
  br label %34

129:                                              ; preds = %125
  %130 = load i32, ptr %16, align 4
  %131 = load ptr, ptr %11, align 8
  store i32 %130, ptr %131, align 4
  %132 = load i32, ptr %17, align 4
  %133 = load ptr, ptr %12, align 8
  store i32 %132, ptr %133, align 4
  ret void
}

; Function Attrs: nounwind uwtable
define ptr @Fxu_MatrixFindDouble(ptr noundef %0, ptr noundef %1, ptr noundef %2, i32 noundef %3, i32 noundef %4) #0 {
  %6 = alloca ptr, align 8
  %7 = alloca ptr, align 8
  %8 = alloca ptr, align 8
  %9 = alloca ptr, align 8
  %10 = alloca i32, align 4
  %11 = alloca i32, align 4
  %12 = alloca [100 x i32], align 16
  %13 = alloca [100 x i32], align 16
  %14 = alloca i32, align 4
  %15 = alloca i32, align 4
  %16 = alloca i32, align 4
  %17 = alloca ptr, align 8
  %18 = alloca ptr, align 8
  %19 = alloca i32, align 4
  store ptr %0, ptr %7, align 8
  store ptr %1, ptr %8, align 8
  store ptr %2, ptr %9, align 8
  store i32 %3, ptr %10, align 4
  store i32 %4, ptr %11, align 4
  %20 = load ptr, ptr %7, align 8
  %21 = load ptr, ptr %8, align 8
  %22 = load ptr, ptr %9, align 8
  %23 = load i32, ptr %10, align 4
  %24 = load i32, ptr %11, align 4
  %25 = call i32 @Fxu_PairHashKeyArray(ptr noundef %20, ptr noundef %21, ptr noundef %22, i32 noundef %23, i32 noundef %24)
  store i32 %25, ptr %19, align 4
  %26 = load ptr, ptr %7, align 8
  %27 = getelementptr inbounds %struct.FxuMatrix, ptr %26, i32 0, i32 4
  %28 = load i32, ptr %27, align 8
  %29 = load i32, ptr %19, align 4
  %30 = urem i32 %29, %28
  store i32 %30, ptr %19, align 4
  %31 = load ptr, ptr %7, align 8
  %32 = getelementptr inbounds %struct.FxuMatrix, ptr %31, i32 0, i32 3
  %33 = load ptr, ptr %32, align 8
  %34 = load i32, ptr %19, align 4
  %35 = zext i32 %34 to i64
  %36 = getelementptr inbounds %struct.FxuListDouble, ptr %33, i64 %35
  %37 = getelementptr inbounds %struct.FxuListDouble, ptr %36, i32 0, i32 0
  %38 = load ptr, ptr %37, align 8
  store ptr %38, ptr %17, align 8
  br label %39

39:                                               ; preds = %118, %5
  %40 = load ptr, ptr %17, align 8
  %41 = icmp ne ptr %40, null
  br i1 %41, label %42, label %122

42:                                               ; preds = %39
  %43 = load ptr, ptr %17, align 8
  %44 = getelementptr inbounds %struct.FxuDouble, ptr %43, i32 0, i32 4
  %45 = getelementptr inbounds %struct.FxuListPair, ptr %44, i32 0, i32 0
  %46 = load ptr, ptr %45, align 8
  store ptr %46, ptr %18, align 8
  %47 = load ptr, ptr %18, align 8
  %48 = getelementptr inbounds %struct.FxuPair, ptr %47, i32 0, i32 0
  %49 = load i32, ptr %48, align 8
  %50 = load i32, ptr %10, align 4
  %51 = icmp ne i32 %49, %50
  br i1 %51, label %52, label %53

52:                                               ; preds = %42
  br label %118

53:                                               ; preds = %42
  %54 = load ptr, ptr %18, align 8
  %55 = getelementptr inbounds %struct.FxuPair, ptr %54, i32 0, i32 1
  %56 = load i32, ptr %55, align 4
  %57 = load i32, ptr %11, align 4
  %58 = icmp ne i32 %56, %57
  br i1 %58, label %59, label %60

59:                                               ; preds = %53
  br label %118

60:                                               ; preds = %53
  %61 = load ptr, ptr %7, align 8
  %62 = load ptr, ptr %17, align 8
  %63 = getelementptr inbounds [100 x i32], ptr %12, i64 0, i64 0
  %64 = getelementptr inbounds [100 x i32], ptr %13, i64 0, i64 0
  call void @Fxu_MatrixGetDoubleVars(ptr noundef %61, ptr noundef %62, ptr noundef %63, ptr noundef %64, ptr noundef %14, ptr noundef %15)
  store i32 0, ptr %16, align 4
  br label %65

65:                                               ; preds = %82, %60
  %66 = load i32, ptr %16, align 4
  %67 = load i32, ptr %10, align 4
  %68 = icmp slt i32 %66, %67
  br i1 %68, label %69, label %85

69:                                               ; preds = %65
  %70 = load ptr, ptr %8, align 8
  %71 = load i32, ptr %16, align 4
  %72 = sext i32 %71 to i64
  %73 = getelementptr inbounds i32, ptr %70, i64 %72
  %74 = load i32, ptr %73, align 4
  %75 = load i32, ptr %16, align 4
  %76 = sext i32 %75 to i64
  %77 = getelementptr inbounds [100 x i32], ptr %12, i64 0, i64 %76
  %78 = load i32, ptr %77, align 4
  %79 = icmp ne i32 %74, %78
  br i1 %79, label %80, label %81

80:                                               ; preds = %69
  br label %85

81:                                               ; preds = %69
  br label %82

82:                                               ; preds = %81
  %83 = load i32, ptr %16, align 4
  %84 = add nsw i32 %83, 1
  store i32 %84, ptr %16, align 4
  br label %65, !llvm.loop !14

85:                                               ; preds = %80, %65
  %86 = load i32, ptr %16, align 4
  %87 = load i32, ptr %10, align 4
  %88 = icmp ne i32 %86, %87
  br i1 %88, label %89, label %90

89:                                               ; preds = %85
  br label %118

90:                                               ; preds = %85
  store i32 0, ptr %16, align 4
  br label %91

91:                                               ; preds = %108, %90
  %92 = load i32, ptr %16, align 4
  %93 = load i32, ptr %11, align 4
  %94 = icmp slt i32 %92, %93
  br i1 %94, label %95, label %111

95:                                               ; preds = %91
  %96 = load ptr, ptr %9, align 8
  %97 = load i32, ptr %16, align 4
  %98 = sext i32 %97 to i64
  %99 = getelementptr inbounds i32, ptr %96, i64 %98
  %100 = load i32, ptr %99, align 4
  %101 = load i32, ptr %16, align 4
  %102 = sext i32 %101 to i64
  %103 = getelementptr inbounds [100 x i32], ptr %13, i64 0, i64 %102
  %104 = load i32, ptr %103, align 4
  %105 = icmp ne i32 %100, %104
  br i1 %105, label %106, label %107

106:                                              ; preds = %95
  br label %111

107:                                              ; preds = %95
  br label %108

108:                                              ; preds = %107
  %109 = load i32, ptr %16, align 4
  %110 = add nsw i32 %109, 1
  store i32 %110, ptr %16, align 4
  br label %91, !llvm.loop !15

111:                                              ; preds = %106, %91
  %112 = load i32, ptr %16, align 4
  %113 = load i32, ptr %11, align 4
  %114 = icmp ne i32 %112, %113
  br i1 %114, label %115, label %116

115:                                              ; preds = %111
  br label %118

116:                                              ; preds = %111
  %117 = load ptr, ptr %17, align 8
  store ptr %117, ptr %6, align 8
  br label %123

118:                                              ; preds = %115, %89, %59, %52
  %119 = load ptr, ptr %17, align 8
  %120 = getelementptr inbounds %struct.FxuDouble, ptr %119, i32 0, i32 6
  %121 = load ptr, ptr %120, align 8
  store ptr %121, ptr %17, align 8
  br label %39, !llvm.loop !16

122:                                              ; preds = %39
  store ptr null, ptr %6, align 8
  br label %123

123:                                              ; preds = %122, %116
  %124 = load ptr, ptr %6, align 8
  ret ptr %124
}