; Function Attrs: nounwind uwtable
define ptr @Fxu_MatrixFindDouble(ptr noundef %0, ptr noundef %1, ptr noundef %2, i32 noundef %3, i32 noundef %4) local_unnamed_addr #0 {
  %6 = alloca [100 x i32], align 16
  %7 = alloca [100 x i32], align 16
  %8 = tail call i32 @Fxu_PairHashKeyArray(ptr noundef %0, ptr noundef %1, ptr noundef %2, i32 noundef %3, i32 noundef %4) #6
  %9 = getelementptr inbounds nuw i8, ptr %0, i64 64
  %10 = load i32, ptr %9, align 8
  %11 = urem i32 %8, %10
  %12 = getelementptr inbounds nuw i8, ptr %0, i64 56
  %13 = load ptr, ptr %12, align 8
  %14 = zext i32 %11 to i64
  %15 = getelementptr inbounds nuw %struct.FxuListDouble, ptr %13, i64 %14
  %.03653 = load ptr, ptr %15, align 8
  %.not54 = icmp eq ptr %.03653, null
  br i1 %.not54, label %._crit_edge58, label %.lr.ph57

.lr.ph57:                                         ; preds = %5
  %16 = icmp sgt i32 %3, 0
  %17 = icmp sgt i32 %4, 0
  %wide.trip.count = zext nneg i32 %3 to i64
  %wide.trip.count66 = zext nneg i32 %4 to i64
  br label %18

18:                                               ; preds = %.lr.ph57, %77
  %.03655 = phi ptr [ %.03653, %.lr.ph57 ], [ %.036, %77 ]
  %19 = getelementptr inbounds nuw i8, ptr %.03655, i64 16
  %20 = load ptr, ptr %19, align 8
  %21 = load i32, ptr %20, align 8
  %.not39 = icmp eq i32 %21, %3
  br i1 %.not39, label %22, label %77

22:                                               ; preds = %18
  %23 = getelementptr inbounds nuw i8, ptr %20, i64 4
  %24 = load i32, ptr %23, align 4
  %.not40 = icmp eq i32 %24, %4
  br i1 %.not40, label %25, label %77

25:                                               ; preds = %22
  %26 = getelementptr inbounds nuw i8, ptr %20, i64 24
  %27 = load ptr, ptr %26, align 8
  %28 = getelementptr inbounds nuw i8, ptr %27, i64 24
  %29 = getelementptr inbounds nuw i8, ptr %20, i64 32
  %30 = load ptr, ptr %29, align 8
  %31 = getelementptr inbounds nuw i8, ptr %30, i64 24
  %32 = load ptr, ptr %31, align 8
  br label %.outer.outer

.outer.outer:                                     ; preds = %.outer.outer.backedge, %25
  %.043.i.ph.ph.in = phi ptr [ %28, %25 ], [ %.043.i.ph.ph.be.in, %.outer.outer.backedge ]
  %.041.i.ph.ph = phi ptr [ %32, %25 ], [ %.041.i.ph.ph.be, %.outer.outer.backedge ]
  %.039.i.ph.ph = phi i32 [ 0, %25 ], [ %.039.i.ph.ph.be, %.outer.outer.backedge ]
  %.0.i.ph.ph = phi i32 [ 0, %25 ], [ %.0.i, %.outer.outer.backedge ]
  %.043.i.ph.ph = load ptr, ptr %.043.i.ph.ph.in, align 8
  br label %.outer

.outer:                                           ; preds = %.outer.backedge, %.outer.outer
  %.043.i.ph = phi ptr [ %.043.i.ph.ph, %.outer.outer ], [ %.043.i.ph.be, %.outer.backedge ]
  %.041.i.ph = phi ptr [ %.041.i.ph.ph, %.outer.outer ], [ %.041.i.ph.be, %.outer.backedge ]
  %.0.i.ph = phi i32 [ %.0.i.ph.ph, %.outer.outer ], [ %.0.i.ph.be, %.outer.backedge ]
  %33 = icmp ne ptr %.043.i.ph, null
  br label %34

34:                                               ; preds = %.outer, %48
  %.041.i = phi ptr [ %53, %48 ], [ %.041.i.ph, %.outer ]
  %.0.i = phi i32 [ %49, %48 ], [ %.0.i.ph, %.outer ]
  %35 = icmp ne ptr %.041.i, null
  %or.cond.i = select i1 %33, i1 %35, i1 false
  br i1 %or.cond.i, label %36, label %54

36:                                               ; preds = %34
  %37 = load i32, ptr %.043.i.ph, align 8
  %38 = load i32, ptr %.041.i, align 8
  %39 = icmp eq i32 %37, %38
  br i1 %39, label %40, label %43

40:                                               ; preds = %36
  %41 = getelementptr inbounds nuw i8, ptr %.043.i.ph, i64 32
  %42 = load ptr, ptr %41, align 8
  br label %.outer.backedge

.outer.backedge:                                  ; preds = %40, %61
  %.043.i.ph.be = phi ptr [ null, %61 ], [ %42, %40 ]
  %.0.i.ph.be = phi i32 [ %63, %61 ], [ %.0.i, %40 ]
  %.041.i.ph.be.in = getelementptr inbounds nuw i8, ptr %.041.i, i64 32
  %.041.i.ph.be = load ptr, ptr %.041.i.ph.be.in, align 8
  br label %.outer

43:                                               ; preds = %36
  %44 = icmp slt i32 %37, %38
  br i1 %44, label %45, label %48

45:                                               ; preds = %43
  %46 = zext nneg i32 %.039.i.ph.ph to i64
  %47 = getelementptr inbounds nuw i32, ptr %6, i64 %46
  store i32 %37, ptr %47, align 4
  br label %.outer.outer.backedge

48:                                               ; preds = %43
  %49 = add nsw i32 %.0.i, 1
  %50 = sext i32 %.0.i to i64
  %51 = getelementptr inbounds i32, ptr %7, i64 %50
  store i32 %38, ptr %51, align 4
  %52 = getelementptr inbounds nuw i8, ptr %.041.i, i64 32
  %53 = load ptr, ptr %52, align 8
  br label %34

54:                                               ; preds = %34
  %55 = icmp eq ptr %.043.i.ph, null
  %or.cond3.i = select i1 %55, i1 true, i1 %35
  br i1 %or.cond3.i, label %60, label %56

56:                                               ; preds = %54
  %57 = load i32, ptr %.043.i.ph, align 8
  %58 = zext nneg i32 %.039.i.ph.ph to i64
  %59 = getelementptr inbounds nuw i32, ptr %6, i64 %58
  store i32 %57, ptr %59, align 4
  br label %.outer.outer.backedge

.outer.outer.backedge:                            ; preds = %56, %45
  %.041.i.ph.ph.be = phi ptr [ %.041.i, %45 ], [ null, %56 ]
  %.039.i.ph.ph.be = add nuw nsw i32 %.039.i.ph.ph, 1
  %.043.i.ph.ph.be.in = getelementptr inbounds nuw i8, ptr %.043.i.ph, i64 32
  br label %.outer.outer

60:                                               ; preds = %54
  %or.cond5.i = select i1 %55, i1 %35, i1 false
  br i1 %or.cond5.i, label %61, label %Fxu_MatrixGetDoubleVars.exit.preheader

Fxu_MatrixGetDoubleVars.exit.preheader:           ; preds = %60
  br i1 %16, label %.lr.ph, label %._crit_edge

61:                                               ; preds = %60
  %62 = load i32, ptr %.041.i, align 8
  %63 = add nsw i32 %.0.i, 1
  %64 = sext i32 %.0.i to i64
  %65 = getelementptr inbounds i32, ptr %7, i64 %64
  store i32 %62, ptr %65, align 4
  br label %.outer.backedge

.lr.ph:                                           ; preds = %Fxu_MatrixGetDoubleVars.exit.preheader, %Fxu_MatrixGetDoubleVars.exit
  %indvars.iv = phi i64 [ %indvars.iv.next, %Fxu_MatrixGetDoubleVars.exit ], [ 0, %Fxu_MatrixGetDoubleVars.exit.preheader ]
  %66 = getelementptr inbounds nuw i32, ptr %1, i64 %indvars.iv
  %67 = load i32, ptr %66, align 4
  %68 = getelementptr inbounds nuw [100 x i32], ptr %6, i64 0, i64 %indvars.iv
  %69 = load i32, ptr %68, align 4
  %.not41 = icmp eq i32 %67, %69
  br i1 %.not41, label %Fxu_MatrixGetDoubleVars.exit, label %._crit_edge.loopexit

Fxu_MatrixGetDoubleVars.exit:                     ; preds = %.lr.ph
  %indvars.iv.next = add nuw nsw i64 %indvars.iv, 1
  %exitcond.not = icmp eq i64 %indvars.iv.next, %wide.trip.count
  br i1 %exitcond.not, label %.preheader, label %.lr.ph, !llvm.loop !14

._crit_edge.loopexit:                             ; preds = %.lr.ph
  %70 = trunc nuw nsw i64 %indvars.iv to i32
  br label %._crit_edge

._crit_edge:                                      ; preds = %._crit_edge.loopexit, %Fxu_MatrixGetDoubleVars.exit.preheader
  %.035.lcssa = phi i32 [ 0, %Fxu_MatrixGetDoubleVars.exit.preheader ], [ %70, %._crit_edge.loopexit ]
  %.not42 = icmp eq i32 %.035.lcssa, %3
  br i1 %.not42, label %.preheader, label %77

.preheader:                                       ; preds = %Fxu_MatrixGetDoubleVars.exit, %._crit_edge
  br i1 %17, label %.lr.ph48, label %._crit_edge49

.lr.ph48:                                         ; preds = %.preheader, %75
  %indvars.iv63 = phi i64 [ %indvars.iv.next64, %75 ], [ 0, %.preheader ]
  %71 = getelementptr inbounds nuw i32, ptr %2, i64 %indvars.iv63
  %72 = load i32, ptr %71, align 4
  %73 = getelementptr inbounds nuw [100 x i32], ptr %7, i64 0, i64 %indvars.iv63
  %74 = load i32, ptr %73, align 4
  %.not43 = icmp eq i32 %72, %74
  br i1 %.not43, label %75, label %._crit_edge49.loopexit

75:                                               ; preds = %.lr.ph48
  %indvars.iv.next64 = add nuw nsw i64 %indvars.iv63, 1
  %exitcond67.not = icmp eq i64 %indvars.iv.next64, %wide.trip.count66
  br i1 %exitcond67.not, label %._crit_edge58, label %.lr.ph48, !llvm.loop !15

._crit_edge49.loopexit:                           ; preds = %.lr.ph48
  %76 = trunc nuw nsw i64 %indvars.iv63 to i32
  br label %._crit_edge49

._crit_edge49:                                    ; preds = %._crit_edge49.loopexit, %.preheader
  %.1.lcssa = phi i32 [ 0, %.preheader ], [ %76, %._crit_edge49.loopexit ]
  %.not44 = icmp eq i32 %.1.lcssa, %4
  br i1 %.not44, label %._crit_edge58, label %77

77:                                               ; preds = %._crit_edge49, %._crit_edge, %22, %18
  %78 = getelementptr inbounds nuw i8, ptr %.03655, i64 48
  %.036 = load ptr, ptr %78, align 8
  %.not = icmp eq ptr %.036, null
  br i1 %.not, label %._crit_edge58, label %18, !llvm.loop !16

._crit_edge58:                                    ; preds = %._crit_edge49, %77, %75, %5
  %.036.lcssa = phi ptr [ null, %5 ], [ %.03655, %75 ], [ null, %77 ], [ %.03655, %._crit_edge49 ]
  ret ptr %.036.lcssa
}